target datalayout = "e-m:e-p270:32:32-p271:32:32-p272:64:64-i64:64-i128:128-f80:128-n8:16:32:64-S128"
target triple = "x86_64-unknown-linux-gnu"

%struct.QEMUIOVector = type { ptr, i32, %union.anon }
%union.anon = type { %struct.anon }
%struct.anon = type { i32, %struct.iovec }
%struct.iovec = type { ptr, i64 }
%struct.IDEBus = type { %struct.BusState, ptr, ptr, [2 x %struct.IDEState], ptr, i32, i32, ptr, i8, i8, ptr, i32, i8, i64, i32, %struct.PortioList, %struct.PortioList, ptr }
%struct.BusState = type { %struct.Object, ptr, ptr, ptr, i32, i8, i8, i32, %union.BusChildHead, %struct.BusStateEntry, %struct.ResettableState }
%struct.Object = type { ptr, ptr, ptr, i32, ptr }
%union.BusChildHead = type { %struct.QTailQLink }
%struct.QTailQLink = type { ptr, ptr }
%struct.BusStateEntry = type { ptr, ptr }
%struct.ResettableState = type { i32, i8, i8 }
%struct.IDEState = type { ptr, i8, i32, i32, i32, i32, i32, i32, i32, i64, i32, i32, [512 x i8], i32, [21 x i8], [41 x i8], i64, i8, i8, i32, i8, i8, i8, i8, i8, i8, i8, i8, i8, i8, i8, i8, i8, ptr, [9 x i8], %struct.unreported_events, i8, i8, i8, i8, i8, i32, i32, i32, i32, i32, i32, %struct.BlockAcctCookie, ptr, %struct.QEMUIOVector, %struct.anon.1, i64, i32, %struct.QEMUSGList, i32, ptr, ptr, ptr, ptr, i32, i32, i32, i8, ptr, i32, i8, i32, ptr, i32, i32, i8, i8, i32, i8, ptr, i32 }
%struct.unreported_events = type { i8, i8 }
%struct.BlockAcctCookie = type { i64, i64, i32 }
%struct.anon.1 = type { ptr }
%struct.QEMUSGList = type { ptr, i32, i32, i64, ptr, ptr }
%struct.PortioList = type { ptr, ptr, ptr, i32, ptr, ptr, ptr, i8 }
%struct.timeval = type { i64, i64 }

@trace_events_enabled_count = external global i32, align 4
@message_with_timestamp = external global i8, align 1
@qemu_loglevel = external global i32, align 4
@_TRACE_IDE_DATA_READL_DSTATE = external global i16, align 2
@.str.86 = private unnamed_addr constant [93 x i8] c"%d@%zu.%06zu:ide_data_readl IDE PIO rd @ 0x%x (Data: Long); val 0x%08x; bus %p; IDEState %p\0A\00", align 1
@.str.87 = private unnamed_addr constant [80 x i8] c"ide_data_readl IDE PIO rd @ 0x%x (Data: Long); val 0x%08x; bus %p; IDEState %p\0A\00", align 1

; Function Attrs: nounwind sspstrong uwtable
define internal zeroext i1 @qemu_loglevel_mask(i32 noundef %mask) #0 {
entry:
  %mask.addr = alloca i32, align 4
  store i32 %mask, ptr %mask.addr, align 4
  %0 = load i32, ptr @qemu_loglevel, align 4
  %1 = load i32, ptr %mask.addr, align 4
  %and = and i32 %0, %1
  %cmp = icmp ne i32 %and, 0
  ret i1 %cmp
}

; Function Attrs: nounwind sspstrong uwtable
define internal void @_nocheck__trace_ide_data_readl(i32 noundef %addr, i32 noundef %val, ptr noundef %bus, ptr noundef %s) #0 {
entry:
  %addr.addr = alloca i32, align 4
  %val.addr = alloca i32, align 4
  %bus.addr = alloca ptr, align 8
  %s.addr = alloca ptr, align 8
  %_now = alloca %struct.timeval, align 8
  store i32 %addr, ptr %addr.addr, align 4
  store i32 %val, ptr %val.addr, align 4
  store ptr %bus, ptr %bus.addr, align 8
  store ptr %s, ptr %s.addr, align 8
  %0 = load i32, ptr @trace_events_enabled_count, align 4
  %tobool = icmp ne i32 %0, 0
  %lnot = xor i1 %tobool, true
  %lnot1 = xor i1 %lnot, true
  %lnot.ext = zext i1 %lnot1 to i32
  %conv = sext i32 %lnot.ext to i64
  %tobool2 = icmp ne i64 %conv, 0
  br i1 %tobool2, label %land.lhs.true, label %if.end11

land.lhs.true:                                    ; preds = %entry
  %1 = load i16, ptr @_TRACE_IDE_DATA_READL_DSTATE, align 2
  %conv3 = zext i16 %1 to i32
  %tobool4 = icmp ne i32 %conv3, 0
  br i1 %tobool4, label %land.lhs.true5, label %if.end11

land.lhs.true5:                                   ; preds = %land.lhs.true
  %call = call zeroext i1 @qemu_loglevel_mask(i32 noundef 32768)
  br i1 %call, label %if.then, label %if.end11

if.then:                                          ; preds = %land.lhs.true5
  %2 = load i8, ptr @message_with_timestamp, align 1
  %tobool7 = trunc i8 %2 to i1
  br i1 %tobool7, label %if.then8, label %if.else

if.then8:                                         ; preds = %if.then
  %call9 = call i32 @gettimeofday(ptr noundef %_now, ptr noundef null) #9
  %call10 = call i32 @qemu_get_thread_id()
  %tv_sec = getelementptr inbounds %struct.timeval, ptr %_now, i32 0, i32 0
  %3 = load i64, ptr %tv_sec, align 8
  %tv_usec = getelementptr inbounds %struct.timeval, ptr %_now, i32 0, i32 1
  %4 = load i64, ptr %tv_usec, align 8
  %5 = load i32, ptr %addr.addr, align 4
  %6 = load i32, ptr %val.addr, align 4
  %7 = load ptr, ptr %bus.addr, align 8
  %8 = load ptr, ptr %s.addr, align 8
  call void (ptr, ...) @qemu_log(ptr noundef @.str.86, i32 noundef %call10, i64 noundef %3, i64 noundef %4, i32 noundef %5, i32 noundef %6, ptr noundef %7, ptr noundef %8)
  br label %if.end

if.else:                                          ; preds = %if.then
  %9 = load i32, ptr %addr.addr, align 4
  %10 = load i32, ptr %val.addr, align 4
  %11 = load ptr, ptr %bus.addr, align 8
  %12 = load ptr, ptr %s.addr, align 8
  call void (ptr, ...) @qemu_log(ptr noundef @.str.87, i32 noundef %9, i32 noundef %10, ptr noundef %11, ptr noundef %12)
  br label %if.end

if.end:                                           ; preds = %if.else, %if.then8
  br label %if.end11

if.end11:                                         ; preds = %if.end, %land.lhs.true5, %land.lhs.true, %entry
  ret void
}

; Function Attrs: nounwind sspstrong uwtable
define internal void @trace_ide_data_readl(i32 noundef %addr, i32 noundef %val, ptr noundef %bus, ptr noundef %s) #0 {
entry:
  %addr.addr = alloca i32, align 4
  %val.addr = alloca i32, align 4
  %bus.addr = alloca ptr, align 8
  %s.addr = alloca ptr, align 8
  store i32 %addr, ptr %addr.addr, align 4
  store i32 %val, ptr %val.addr, align 4
  store ptr %bus, ptr %bus.addr, align 8
  store ptr %s, ptr %s.addr, align 8
  %0 = load i32, ptr %addr.addr, align 4
  %1 = load i32, ptr %val.addr, align 4
  %2 = load ptr, ptr %bus.addr, align 8
  %3 = load ptr, ptr %s.addr, align 8
  call void @_nocheck__trace_ide_data_readl(i32 noundef %0, i32 noundef %1, ptr noundef %2, ptr noundef %3)
  ret void
}

; Function Attrs: nounwind sspstrong uwtable
define internal i32 @cpu_to_le32(i32 noundef %v) #0 {
entry:
  %v.addr = alloca i32, align 4
  store i32 %v, ptr %v.addr, align 4
  %0 = load i32, ptr %v.addr, align 4
  ret i32 %0
}

; Function Attrs: nounwind sspstrong uwtable
define internal zeroext i1 @ide_is_pio_out(ptr noundef %s) #0 {
entry:
  %retval = alloca i1, align 1
  %s.addr = alloca ptr, align 8
  store ptr %s, ptr %s.addr, align 8
  %0 = load ptr, ptr %s.addr, align 8
  %end_transfer_func = getelementptr inbounds %struct.IDEState, ptr %0, i32 0, i32 55
  %1 = load ptr, ptr %end_transfer_func, align 8
  %cmp = icmp eq ptr %1, @ide_sector_write
  br i1 %cmp, label %if.then, label %lor.lhs.false

lor.lhs.false:                                    ; preds = %entry
  %2 = load ptr, ptr %s.addr, align 8
  %end_transfer_func1 = getelementptr inbounds %struct.IDEState, ptr %2, i32 0, i32 55
  %3 = load ptr, ptr %end_transfer_func1, align 8
  %cmp2 = icmp eq ptr %3, @ide_atapi_cmd
  br i1 %cmp2, label %if.then, label %if.else

if.then:                                          ; preds = %lor.lhs.false, %entry
  store i1 false, ptr %retval, align 1
  br label %return

if.else:                                          ; preds = %lor.lhs.false
  %4 = load ptr, ptr %s.addr, align 8
  %end_transfer_func3 = getelementptr inbounds %struct.IDEState, ptr %4, i32 0, i32 55
  %5 = load ptr, ptr %end_transfer_func3, align 8
  %cmp4 = icmp eq ptr %5, @ide_sector_read
  br i1 %cmp4, label %if.then14, label %lor.lhs.false5

lor.lhs.false5:                                   ; preds = %if.else
  %6 = load ptr, ptr %s.addr, align 8
  %end_transfer_func6 = getelementptr inbounds %struct.IDEState, ptr %6, i32 0, i32 55
  %7 = load ptr, ptr %end_transfer_func6, align 8
  %cmp7 = icmp eq ptr %7, @ide_transfer_stop
  br i1 %cmp7, label %if.then14, label %lor.lhs.false8

lor.lhs.false8:                                   ; preds = %lor.lhs.false5
  %8 = load ptr, ptr %s.addr, align 8
  %end_transfer_func9 = getelementptr inbounds %struct.IDEState, ptr %8, i32 0, i32 55
  %9 = load ptr, ptr %end_transfer_func9, align 8
  %cmp10 = icmp eq ptr %9, @ide_atapi_cmd_reply_end
  br i1 %cmp10, label %if.then14, label %lor.lhs.false11

lor.lhs.false11:                                  ; preds = %lor.lhs.false8
  %10 = load ptr, ptr %s.addr, align 8
  %end_transfer_func12 = getelementptr inbounds %struct.IDEState, ptr %10, i32 0, i32 55
  %11 = load ptr, ptr %end_transfer_func12, align 8
  %cmp13 = icmp eq ptr %11, @ide_dummy_transfer_stop
  br i1 %cmp13, label %if.then14, label %if.end

if.then14:                                        ; preds = %lor.lhs.false11, %lor.lhs.false8, %lor.lhs.false5, %if.else
  store i1 true, ptr %retval, align 1
  br label %return

if.end:                                           ; preds = %lor.lhs.false11
  br label %if.end15

if.end15:                                         ; preds = %if.end
  call void @abort() #8
  unreachable

return:                                           ; preds = %if.then14, %if.then
  %12 = load i1, ptr %retval, align 1
  ret i1 %12
}

; Function Attrs: nounwind sspstrong uwtable
define internal ptr @ide_bus_active_if(ptr noundef %bus) #0 {
entry:
  %bus.addr = alloca ptr, align 8
  store ptr %bus, ptr %bus.addr, align 8
  %0 = load ptr, ptr %bus.addr, align 8
  %ifs = getelementptr inbounds %struct.IDEBus, ptr %0, i32 0, i32 3
  %arraydecay = getelementptr inbounds [2 x %struct.IDEState], ptr %ifs, i64 0, i64 0
  %1 = load ptr, ptr %bus.addr, align 8
  %unit = getelementptr inbounds %struct.IDEBus, ptr %1, i32 0, i32 8
  %2 = load i8, ptr %unit, align 8
  %conv = zext i8 %2 to i32
  %idx.ext = sext i32 %conv to i64
  %add.ptr = getelementptr %struct.IDEState, ptr %arraydecay, i64 %idx.ext
  ret ptr %add.ptr
}

; Function Attrs: nounwind sspstrong uwtable
define dso_local i32 @ide_data_readl(ptr noundef %opaque, i32 noundef %addr) #0 {
entry:
  %retval = alloca i32, align 4
  %opaque.addr = alloca ptr, align 8
  %addr.addr = alloca i32, align 4
  %bus = alloca ptr, align 8
  %s = alloca ptr, align 8
  %p = alloca ptr, align 8
  %ret = alloca i32, align 4
  store ptr %opaque, ptr %opaque.addr, align 8
  store i32 %addr, ptr %addr.addr, align 4
  %0 = load ptr, ptr %opaque.addr, align 8
  store ptr %0, ptr %bus, align 8
  %1 = load ptr, ptr %bus, align 8
  %call = call ptr @ide_bus_active_if(ptr noundef %1)
  store ptr %call, ptr %s, align 8
  %2 = load ptr, ptr %s, align 8
  %status = getelementptr inbounds %struct.IDEState, ptr %2, i32 0, i32 29
  %3 = load i8, ptr %status, align 1
  %conv = zext i8 %3 to i32
  %and = and i32 %conv, 8
  %tobool = icmp ne i32 %and, 0
  br i1 %tobool, label %lor.lhs.false, label %if.then

lor.lhs.false:                                    ; preds = %entry
  %4 = load ptr, ptr %s, align 8
  %call1 = call zeroext i1 @ide_is_pio_out(ptr noundef %4)
  br i1 %call1, label %if.end, label %if.then

if.then:                                          ; preds = %lor.lhs.false, %entry
  store i32 0, ptr %ret, align 4
  br label %out

if.end:                                           ; preds = %lor.lhs.false
  %5 = load ptr, ptr %s, align 8
  %data_ptr = getelementptr inbounds %struct.IDEState, ptr %5, i32 0, i32 56
  %6 = load ptr, ptr %data_ptr, align 8
  store ptr %6, ptr %p, align 8
  %7 = load ptr, ptr %p, align 8
  %add.ptr = getelementptr i8, ptr %7, i64 4
  %8 = load ptr, ptr %s, align 8
  %data_end = getelementptr inbounds %struct.IDEState, ptr %8, i32 0, i32 57
  %9 = load ptr, ptr %data_end, align 8
  %cmp = icmp ugt ptr %add.ptr, %9
  br i1 %cmp, label %if.then3, label %if.end4

if.then3:                                         ; preds = %if.end
  store i32 0, ptr %retval, align 4
  br label %return

if.end4:                                          ; preds = %if.end
  %10 = load ptr, ptr %p, align 8
  %11 = load i32, ptr %10, align 4
  %call5 = call i32 @cpu_to_le32(i32 noundef %11)
  store i32 %call5, ptr %ret, align 4
  %12 = load ptr, ptr %p, align 8
  %add.ptr6 = getelementptr i8, ptr %12, i64 4
  store ptr %add.ptr6, ptr %p, align 8
  %13 = load ptr, ptr %p, align 8
  %14 = load ptr, ptr %s, align 8
  %data_ptr7 = getelementptr inbounds %struct.IDEState, ptr %14, i32 0, i32 56
  store ptr %13, ptr %data_ptr7, align 8
  %15 = load ptr, ptr %p, align 8
  %16 = load ptr, ptr %s, align 8
  %data_end8 = getelementptr inbounds %struct.IDEState, ptr %16, i32 0, i32 57
  %17 = load ptr, ptr %data_end8, align 8
  %cmp9 = icmp uge ptr %15, %17
  br i1 %cmp9, label %if.then11, label %if.end16

if.then11:                                        ; preds = %if.end4
  %18 = load ptr, ptr %s, align 8
  %status12 = getelementptr inbounds %struct.IDEState, ptr %18, i32 0, i32 29
  %19 = load i8, ptr %status12, align 1
  %conv13 = zext i8 %19 to i32
  %and14 = and i32 %conv13, -9
  %conv15 = trunc i32 %and14 to i8
  store i8 %conv15, ptr %status12, align 1
  %20 = load ptr, ptr %s, align 8
  %end_transfer_func = getelementptr inbounds %struct.IDEState, ptr %20, i32 0, i32 55
  %21 = load ptr, ptr %end_transfer_func, align 8
  %22 = load ptr, ptr %s, align 8
  call void %21(ptr noundef %22)
  br label %if.end16

if.end16:                                         ; preds = %if.then11, %if.end4
  br label %out

out:                                              ; preds = %if.end16, %if.then
  %23 = load i32, ptr %addr.addr, align 4
  %24 = load i32, ptr %ret, align 4
  %25 = load ptr, ptr %bus, align 8
  %26 = load ptr, ptr %s, align 8
  call void @trace_ide_data_readl(i32 noundef %23, i32 noundef %24, ptr noundef %25, ptr noundef %26)
  %27 = load i32, ptr %ret, align 4
  store i32 %27, ptr %retval, align 4
  br label %return

return:                                           ; preds = %out, %if.then3
  %28 = load i32, ptr %retval, align 4
  ret i32 %28
}