; Function Attrs: nounwind sspstrong uwtable
define dso_local i32 @ide_data_readl(ptr noundef %opaque, i32 noundef %addr) #0 {
entry:
  %_now.i.i = alloca %struct.timeval, align 8
  %ifs.i = getelementptr inbounds nuw i8, ptr %opaque, i64 136
  %unit.i = getelementptr inbounds nuw i8, ptr %opaque, i64 2128
  %0 = load i8, ptr %unit.i, align 8
  %idx.ext.i = zext i8 %0 to i64
  %add.ptr.i = getelementptr %struct.IDEState, ptr %ifs.i, i64 %idx.ext.i
  %status = getelementptr inbounds nuw i8, ptr %add.ptr.i, i64 665
  %1 = load i8, ptr %status, align 1
  %2 = and i8 %1, 8
  %tobool.not = icmp eq i8 %2, 0
  br i1 %tobool.not, label %out, label %lor.lhs.false

lor.lhs.false:                                    ; preds = %entry
  %3 = getelementptr i8, ptr %add.ptr.i, i64 864
  %call.val = load ptr, ptr %3, align 8
  %cmp.i = icmp ne ptr %call.val, @ide_sector_write
  %cmp2.i = icmp ne ptr %call.val, @ide_atapi_cmd
  %or.cond.not.i = and i1 %cmp.i, %cmp2.i
  br i1 %or.cond.not.i, label %if.else.i, label %out

if.else.i:                                        ; preds = %lor.lhs.false
  %cmp4.i = icmp eq ptr %call.val, @ide_sector_read
  %cmp7.i = icmp eq ptr %call.val, @ide_transfer_stop
  %or.cond6.i = or i1 %cmp4.i, %cmp7.i
  %cmp10.i = icmp eq ptr %call.val, @ide_atapi_cmd_reply_end
  %or.cond7.i = or i1 %cmp10.i, %or.cond6.i
  %cmp13.i = icmp eq ptr %call.val, @ide_dummy_transfer_stop
  %or.cond8.i = or i1 %cmp13.i, %or.cond7.i
  br i1 %or.cond8.i, label %if.end, label %if.end15.i

if.end15.i:                                       ; preds = %if.else.i
  tail call void @abort() #18
  unreachable

if.end:                                           ; preds = %if.else.i
  %data_ptr = getelementptr inbounds nuw i8, ptr %add.ptr.i, i64 872
  %4 = load ptr, ptr %data_ptr, align 8
  %add.ptr = getelementptr i8, ptr %4, i64 4
  %data_end = getelementptr inbounds nuw i8, ptr %add.ptr.i, i64 880
  %5 = load ptr, ptr %data_end, align 8
  %cmp = icmp ugt ptr %add.ptr, %5
  br i1 %cmp, label %return, label %if.end4

if.end4:                                          ; preds = %if.end
  %6 = load i32, ptr %4, align 4
  store ptr %add.ptr, ptr %data_ptr, align 8
  %cmp9.not = icmp ult ptr %add.ptr, %5
  br i1 %cmp9.not, label %out, label %if.then11

if.then11:                                        ; preds = %if.end4
  %7 = and i8 %1, -9
  store i8 %7, ptr %status, align 1
  tail call void %call.val(ptr noundef %add.ptr.i) #17
  br label %out

out:                                              ; preds = %lor.lhs.false, %entry, %if.end4, %if.then11
  %ret.0 = phi i32 [ %6, %if.then11 ], [ %6, %if.end4 ], [ 0, %entry ], [ 0, %lor.lhs.false ]
  call void @llvm.lifetime.start.p0(i64 16, ptr nonnull %_now.i.i)
  %8 = load i32, ptr @trace_events_enabled_count, align 4
  %tobool.i.i = icmp ne i32 %8, 0
  %9 = load i16, ptr @_TRACE_IDE_DATA_READL_DSTATE, align 2
  %tobool4.i.i = icmp ne i16 %9, 0
  %or.cond.i.i = select i1 %tobool.i.i, i1 %tobool4.i.i, i1 false
  br i1 %or.cond.i.i, label %land.lhs.true5.i.i, label %trace_ide_data_readl.exit

land.lhs.true5.i.i:                               ; preds = %out
  %10 = load i32, ptr @qemu_loglevel, align 4
  %and.i.i.i = and i32 %10, 32768
  %cmp.i.not.i.i = icmp eq i32 %and.i.i.i, 0
  br i1 %cmp.i.not.i.i, label %trace_ide_data_readl.exit, label %if.then.i.i

if.then.i.i:                                      ; preds = %land.lhs.true5.i.i
  %11 = load i8, ptr @message_with_timestamp, align 1
  %tobool7.i.i = trunc i8 %11 to i1
  br i1 %tobool7.i.i, label %if.then8.i.i, label %if.else.i.i

if.then8.i.i:                                     ; preds = %if.then.i.i
  %call9.i.i = call i32 @gettimeofday(ptr noundef nonnull %_now.i.i, ptr noundef null) #17
  %call10.i.i = tail call i32 @qemu_get_thread_id() #17
  %12 = load i64, ptr %_now.i.i, align 8
  %tv_usec.i.i = getelementptr inbounds nuw i8, ptr %_now.i.i, i64 8
  %13 = load i64, ptr %tv_usec.i.i, align 8
  tail call void (ptr, ...) @qemu_log(ptr noundef nonnull @.str.86, i32 noundef %call10.i.i, i64 noundef %12, i64 noundef %13, i32 noundef %addr, i32 noundef %ret.0, ptr noundef nonnull %opaque, ptr noundef %add.ptr.i) #17
  br label %trace_ide_data_readl.exit

if.else.i.i:                                      ; preds = %if.then.i.i
  tail call void (ptr, ...) @qemu_log(ptr noundef nonnull @.str.87, i32 noundef %addr, i32 noundef %ret.0, ptr noundef nonnull %opaque, ptr noundef %add.ptr.i) #17
  br label %trace_ide_data_readl.exit

trace_ide_data_readl.exit:                        ; preds = %out, %land.lhs.true5.i.i, %if.then8.i.i, %if.else.i.i
  call void @llvm.lifetime.end.p0(i64 16, ptr nonnull %_now.i.i)
  br label %return

return:                                           ; preds = %if.end, %trace_ide_data_readl.exit
  %retval.0 = phi i32 [ %ret.0, %trace_ide_data_readl.exit ], [ 0, %if.end ]
  ret i32 %retval.0
}